; ModuleID = '7/72.c'
source_filename = "7/72.c"
target datalayout = "e-m:e-p270:32:32-p271:32:32-p272:64:64-i64:64-f80:128-n8:16:32:64-S128"
target triple = "x86_64-pc-linux-gnu"

@.str = private unnamed_addr constant [7 x i8] c"%s%s%s\00", align 1
@.str.1 = private unnamed_addr constant [3 x i8] c"%s\00", align 1
@.str.2 = private unnamed_addr constant [3 x i8] c"%c\00", align 1

; Function Attrs: noinline nounwind uwtable
define dso_local i32 @main() #0 {
  %1 = alloca i32, align 4
  %2 = alloca [300 x i8], align 16
  %3 = alloca [200 x i8], align 16
  %4 = alloca [200 x i8], align 16
  %5 = alloca [200 x i8], align 16
  %6 = alloca i32, align 4
  %7 = alloca i32, align 4
  %8 = alloca i32, align 4
  %9 = alloca i32, align 4
  %10 = alloca i32, align 4
  %11 = alloca i32, align 4
  %12 = alloca i32, align 4
  %13 = alloca i32, align 4
  %14 = alloca i32, align 4
  store i32 0, i32* %1, align 4
  %15 = bitcast [200 x i8]* %5 to i8*
  call void @llvm.memset.p0i8.i64(i8* align 16 %15, i8 0, i64 200, i1 false)
  %16 = getelementptr inbounds [300 x i8], [300 x i8]* %2, i64 0, i64 0
  %17 = getelementptr inbounds [200 x i8], [200 x i8]* %3, i64 0, i64 0
  %18 = getelementptr inbounds [200 x i8], [200 x i8]* %4, i64 0, i64 0
  %19 = call i32 (i8*, ...) @__isoc99_scanf(i8* getelementptr inbounds ([7 x i8], [7 x i8]* @.str, i64 0, i64 0), i8* %16, i8* %17, i8* %18)
  %20 = getelementptr inbounds [300 x i8], [300 x i8]* %2, i64 0, i64 0
  %21 = call i64 @strlen(i8* %20) #4
  %22 = trunc i64 %21 to i32
  store i32 %22, i32* %6, align 4
  %23 = getelementptr inbounds [200 x i8], [200 x i8]* %3, i64 0, i64 0
  %24 = call i64 @strlen(i8* %23) #4
  %25 = trunc i64 %24 to i32
  store i32 %25, i32* %7, align 4
  %26 = getelementptr inbounds [200 x i8], [200 x i8]* %4, i64 0, i64 0
  %27 = call i64 @strlen(i8* %26) #4
  %28 = trunc i64 %27 to i32
  store i32 %28, i32* %8, align 4
  store i32 0, i32* %13, align 4
  store i32 10000, i32* %11, align 4
  store i32 0, i32* %9, align 4
  br label %29

29:                                               ; preds = %70, %0
  %30 = load i32, i32* %9, align 4
  %31 = load i32, i32* %6, align 4
  %32 = load i32, i32* %7, align 4
  %33 = sub nsw i32 %31, %32
  %34 = add nsw i32 %33, 1
  %35 = icmp slt i32 %30, %34
  br i1 %35, label %36, label %73

36:                                               ; preds = %29
  %37 = load i32, i32* %13, align 4
  %38 = icmp eq i32 %37, 0
  br i1 %38, label %39, label %69

39:                                               ; preds = %36
  store i32 0, i32* %10, align 4
  br label %40

40:                                               ; preds = %54, %39
  %41 = load i32, i32* %10, align 4
  %42 = load i32, i32* %7, align 4
  %43 = icmp slt i32 %41, %42
  br i1 %43, label %44, label %57

44:                                               ; preds = %40
  %45 = load i32, i32* %9, align 4
  %46 = load i32, i32* %10, align 4
  %47 = add nsw i32 %45, %46
  %48 = sext i32 %47 to i64
  %49 = getelementptr inbounds [300 x i8], [300 x i8]* %2, i64 0, i64 %48
  %50 = load i8, i8* %49, align 1
  %51 = load i32, i32* %10, align 4
  %52 = sext i32 %51 to i64
  %53 = getelementptr inbounds [200 x i8], [200 x i8]* %5, i64 0, i64 %52
  store i8 %50, i8* %53, align 1
  br label %54

54:                                               ; preds = %44
  %55 = load i32, i32* %10, align 4
  %56 = add nsw i32 %55, 1
  store i32 %56, i32* %10, align 4
  br label %40

57:                                               ; preds = %40
  %58 = getelementptr inbounds [200 x i8], [200 x i8]* %5, i64 0, i64 0
  %59 = getelementptr inbounds [200 x i8], [200 x i8]* %3, i64 0, i64 0
  %60 = call i32 @strcmp(i8* %58, i8* %59) #4
  store i32 %60, i32* %12, align 4
  %61 = load i32, i32* %12, align 4
  %62 = icmp eq i32 %61, 0
  br i1 %62, label %63, label %68

63:                                               ; preds = %57
  %64 = load i32, i32* %9, align 4
  store i32 %64, i32* %11, align 4
  store i32 1, i32* %13, align 4
  %65 = load i32, i32* %9, align 4
  %66 = load i32, i32* %10, align 4
  %67 = add nsw i32 %65, %66
  store i32 %67, i32* %14, align 4
  br label %68

68:                                               ; preds = %63, %57
  br label %69

69:                                               ; preds = %68, %36
  br label %70

70:                                               ; preds = %69
  %71 = load i32, i32* %9, align 4
  %72 = add nsw i32 %71, 1
  store i32 %72, i32* %9, align 4
  br label %29

73:                                               ; preds = %29
  %74 = load i32, i32* %11, align 4
  %75 = icmp eq i32 %74, 10000
  br i1 %75, label %76, label %79

76:                                               ; preds = %73
  %77 = getelementptr inbounds [300 x i8], [300 x i8]* %2, i64 0, i64 0
  %78 = call i32 (i8*, ...) @printf(i8* getelementptr inbounds ([3 x i8], [3 x i8]* @.str.1, i64 0, i64 0), i8* %77)
  br label %113

79:                                               ; preds = %73
  store i32 0, i32* %9, align 4
  br label %80

80:                                               ; preds = %91, %79
  %81 = load i32, i32* %9, align 4
  %82 = load i32, i32* %11, align 4
  %83 = icmp slt i32 %81, %82
  br i1 %83, label %84, label %94

84:                                               ; preds = %80
  %85 = load i32, i32* %9, align 4
  %86 = sext i32 %85 to i64
  %87 = getelementptr inbounds [300 x i8], [300 x i8]* %2, i64 0, i64 %86
  %88 = load i8, i8* %87, align 1
  %89 = sext i8 %88 to i32
  %90 = call i32 (i8*, ...) @printf(i8* getelementptr inbounds ([3 x i8], [3 x i8]* @.str.2, i64 0, i64 0), i32 %89)
  br label %91

91:                                               ; preds = %84
  %92 = load i32, i32* %9, align 4
  %93 = add nsw i32 %92, 1
  store i32 %93, i32* %9, align 4
  br label %80

94:                                               ; preds = %80
  %95 = getelementptr inbounds [200 x i8], [200 x i8]* %4, i64 0, i64 0
  %96 = call i32 (i8*, ...) @printf(i8* getelementptr inbounds ([3 x i8], [3 x i8]* @.str.1, i64 0, i64 0), i8* %95)
  %97 = load i32, i32* %14, align 4
  store i32 %97, i32* %9, align 4
  br label %98

98:                                               ; preds = %109, %94
  %99 = load i32, i32* %9, align 4
  %100 = load i32, i32* %6, align 4
  %101 = icmp slt i32 %99, %100
  br i1 %101, label %102, label %112

102:                                              ; preds = %98
  %103 = load i32, i32* %9, align 4
  %104 = sext i32 %103 to i64
  %105 = getelementptr inbounds [300 x i8], [300 x i8]* %2, i64 0, i64 %104
  %106 = load i8, i8* %105, align 1
  %107 = sext i8 %106 to i32
  %108 = call i32 (i8*, ...) @printf(i8* getelementptr inbounds ([3 x i8], [3 x i8]* @.str.2, i64 0, i64 0), i32 %107)
  br label %109

109:                                              ; preds = %102
  %110 = load i32, i32* %9, align 4
  %111 = add nsw i32 %110, 1
  store i32 %111, i32* %9, align 4
  br label %98

112:                                              ; preds = %98
  br label %113

113:                                              ; preds = %112, %76
  ret i32 0
}

; Function Attrs: argmemonly nounwind willreturn
declare void @llvm.memset.p0i8.i64(i8* nocapture writeonly, i8, i64, i1 immarg) #1

declare dso_local i32 @__isoc99_scanf(i8*, ...) #2

; Function Attrs: nounwind readonly
declare dso_local i64 @strlen(i8*) #3

; Function Attrs: nounwind readonly
declare dso_local i32 @strcmp(i8*, i8*) #3

declare dso_local i32 @printf(i8*, ...) #2


!llvm.module.flags = !{!0}
!llvm.ident = !{!1}

!0 = !{i32 1, !"wchar_size", i32 4}
!1 = !{!"clang version 10.0.0-4ubuntu1 "}
